Certificate:
    Data:
        Version: 3 (0x2)
        Serial Number: 1 (0x1)
        Signature Algorithm: sha256WithRSAEncryption
        Issuer: C=DE, ST=US, L=US, O=Univention, OU=Univention Corporate Server, CN=Univention Corporate Server Root CA (ID=E3XlAdoW)/emailAddress=ssl@univention.intranet
        Validity
            Not Before: Nov 25 10:53:52 2022 GMT
            Not After : Nov 24 10:53:52 2027 GMT
        Subject: C=DE, ST=US, L=US, O=Univention, OU=Univention Corporate Server, CN=ucs-5746.univention.intranet/emailAddress=ssl@univention.intranet
        Subject Public Key Info:
            Public Key Algorithm: rsaEncryption
                RSA Public-Key: (2048 bit)
                Modulus:
                    00:a1:47:97:5e:9a:f6:2f:fb:45:a1:cf:e8:53:a7:
                    d7:2a:38:41:61:e9:1a:da:27:0a:29:bb:54:4e:af:
                    d8:3a:68:f2:ca:b2:2e:92:3d:57:8d:0e:27:b8:1e:
                    d6:a3:3d:09:36:da:93:62:13:46:72:ff:bf:09:7e:
                    66:5c:4a:a8:4f:2e:a7:b1:a5:6a:78:2c:05:e6:87:
                    1d:c4:82:73:a3:36:8a:0f:0d:1e:5e:e5:cf:00:69:
                    ac:8b:86:b7:f6:e9:f4:e5:8f:48:da:af:61:ef:70:
                    56:f8:1b:f7:36:bc:87:8b:d9:70:38:97:ce:fb:61:
                    0b:02:80:59:b3:ec:25:0e:0f:b3:8e:f5:51:3a:5f:
                    5a:68:4d:f0:7a:22:15:b8:01:fd:17:1f:aa:1e:85:
                    9e:ba:f1:c1:cb:2a:78:68:17:a5:bf:f3:c2:15:37:
                    7b:4b:8a:71:e1:90:41:2e:de:28:e5:64:9f:c8:78:
                    ca:44:bf:7e:4a:13:e0:4a:35:cc:04:d1:62:73:8d:
                    bc:46:10:22:1b:8a:65:db:c0:72:3b:81:51:b3:de:
                    93:e2:20:0e:77:d9:01:f5:dd:16:a7:95:a9:6e:cd:
                    75:13:f0:8e:3e:8c:9c:87:3b:7f:44:8a:95:98:28:
                    dc:1e:11:e4:20:ff:61:da:81:27:bb:5a:8d:69:b4:
                    da:49
                Exponent: 65537 (0x10001)
        X509v3 extensions:
            X509v3 Basic Constraints: 
                CA:FALSE
            X509v3 Subject Key Identifier: 
                50:A6:2A:56:D1:39:3E:60:F2:5A:E7:C6:1F:79:BB:F1:00:C0:EB:98
            X509v3 Authority Key Identifier: 
                keyid:53:12:AE:8E:69:74:FA:E3:7E:A0:CD:2A:B8:0F:47:61:32:CF:AE:36
                DirName:/C=DE/ST=US/L=US/O=Univention/OU=Univention Corporate Server/CN=Univention Corporate Server Root CA (ID=E3XlAdoW)/emailAddress=ssl@univention.intranet
                serial:3F:94:0F:FE:00:1E:9E:83:7E:25:51:F6:F4:42:A1:9D:10:7B:2D:F7

            X509v3 Key Usage: 
                Digital Signature, Non Repudiation, Key Encipherment
            X509v3 Subject Alternative Name: 
                DNS:ucs-5746.univention.intranet, DNS:ucs-5746
    Signature Algorithm: sha256WithRSAEncryption
         32:ea:39:0c:5a:dc:8e:53:30:f0:08:f5:31:fc:92:fd:a5:6d:
         da:be:aa:e4:de:18:fc:2f:cf:bd:09:2f:39:ae:99:70:cd:5f:
         a2:98:4a:52:a9:a2:e1:f0:ce:ae:b1:98:26:26:ba:6e:a5:fa:
         3c:37:52:b2:06:b3:f6:36:66:0d:94:ec:4e:82:00:b2:7c:44:
         c1:e8:0f:2e:02:b3:a6:d5:8d:3e:2f:28:8b:05:10:f3:73:8a:
         a5:65:4d:2c:09:f8:ef:27:b8:a0:30:ff:93:9a:db:34:88:16:
         3c:14:16:e6:0a:c8:ca:a7:43:c4:64:99:58:0f:df:69:cf:56:
         7c:3d:e8:a0:87:ca:f5:bd:81:d8:c1:ea:c4:b2:e2:66:d1:8a:
         1a:cd:ad:5c:2e:7a:c2:ee:89:cc:04:c8:16:b6:75:e5:84:5e:
         b4:10:7e:c8:b3:82:7b:7c:c1:06:57:b2:0e:49:b7:14:51:cc:
         7e:65:4c:f5:cc:7c:bb:57:90:4c:a2:fe:0e:10:ca:26:f8:85:
         2c:c4:b5:6b:40:83:d9:81:20:72:00:67:5d:8d:e1:11:19:64:
         ab:b2:f5:24:2e:83:37:1d:65:93:3f:e2:3f:4e:de:1c:de:7b:
         1f:6b:47:d4:83:f9:43:20:7c:7d:f3:6b:60:d0:76:bb:6c:6d:
         22:77:0b:b8
-----BEGIN CERTIFICATE-----
MIIFbjCCBFagAwIBAgIBATANBgkqhkiG9w0BAQsFADCBxjELMAkGA1UEBhMCREUx
CzAJBgNVBAgTAlVTMQswCQYDVQQHEwJVUzETMBEGA1UEChMKVW5pdmVudGlvbjEk
MCIGA1UECxMbVW5pdmVudGlvbiBDb3Jwb3JhdGUgU2VydmVyMTowOAYDVQQDEzFV
bml2ZW50aW9uIENvcnBvcmF0ZSBTZXJ2ZXIgUm9vdCBDQSAoSUQ9RTNYbEFkb1cp
MSYwJAYJKoZIhvcNAQkBFhdzc2xAdW5pdmVudGlvbi5pbnRyYW5ldDAeFw0yMjEx
MjUxMDUzNTJaFw0yNzExMjQxMDUzNTJaMIGxMQswCQYDVQQGEwJERTELMAkGA1UE
CBMCVVMxCzAJBgNVBAcTAlVTMRMwEQYDVQQKEwpVbml2ZW50aW9uMSQwIgYDVQQL
ExtVbml2ZW50aW9uIENvcnBvcmF0ZSBTZXJ2ZXIxJTAjBgNVBAMTHHVjcy01NzQ2
LnVuaXZlbnRpb24uaW50cmFuZXQxJjAkBgkqhkiG9w0BCQEWF3NzbEB1bml2ZW50
aW9uLmludHJhbmV0MIIBIjANBgkqhkiG9w0BAQEFAAOCAQ8AMIIBCgKCAQEAoUeX
Xpr2L/tFoc/oU6fXKjhBYeka2icKKbtUTq/YOmjyyrIukj1XjQ4nuB7Woz0JNtqT
YhNGcv+/CX5mXEqoTy6nsaVqeCwF5ocdxIJzozaKDw0eXuXPAGmsi4a39un05Y9I
2q9h73BW+Bv3NryHi9lwOJfO+2ELAoBZs+wlDg+zjvVROl9aaE3weiIVuAH9Fx+q
HoWeuvHByyp4aBelv/PCFTd7S4px4ZBBLt4o5WSfyHjKRL9+ShPgSjXMBNFic428
RhAiG4pl28ByO4FRs96T4iAOd9kB9d0Wp5Wpbs11E/COPoychzt/RIqVmCjcHhHk
IP9h2oEnu1qNabTaSQIDAQABo4IBeDCCAXQwCQYDVR0TBAIwADAdBgNVHQ4EFgQU
UKYqVtE5PmDyWufGH3m78QDA65gwggEGBgNVHSMEgf4wgfuAFFMSro5pdPrjfqDN
KrgPR2Eyz642oYHMpIHJMIHGMQswCQYDVQQGEwJERTELMAkGA1UECBMCVVMxCzAJ
BgNVBAcTAlVTMRMwEQYDVQQKEwpVbml2ZW50aW9uMSQwIgYDVQQLExtVbml2ZW50
aW9uIENvcnBvcmF0ZSBTZXJ2ZXIxOjA4BgNVBAMTMVVuaXZlbnRpb24gQ29ycG9y
YXRlIFNlcnZlciBSb290IENBIChJRD1FM1hsQWRvVykxJjAkBgkqhkiG9w0BCQEW
F3NzbEB1bml2ZW50aW9uLmludHJhbmV0ghQ/lA/+AB6eg34lUfb0QqGdEHst9zAL
BgNVHQ8EBAMCBeAwMQYDVR0RBCowKIIcdWNzLTU3NDYudW5pdmVudGlvbi5pbnRy
YW5ldIIIdWNzLTU3NDYwDQYJKoZIhvcNAQELBQADggEBADLqOQxa3I5TMPAI9TH8
kv2lbdq+quTeGPwvz70JLzmumXDNX6KYSlKpouHwzq6xmCYmum6l+jw3UrIGs/Y2
Zg2U7E6CALJ8RMHoDy4Cs6bVjT4vKIsFEPNziqVlTSwJ+O8nuKAw/5Oa2zSIFjwU
FuYKyMqnQ8RkmVgP32nPVnw96KCHyvW9gdjB6sSy4mbRihrNrVwuesLuicwEyBa2
deWEXrQQfsizgnt8wQZXsg5JtxRRzH5lTPXMfLtXkEyi/g4Qyib4hSzEtWtAg9mB
IHIAZ12N4REZZKuy9SQugzcdZZM/4j9O3hzeex9rR9SD+UMgfH3za2DQdrtsbSJ3
C7g=
-----END CERTIFICATE-----
